target datalayout = "e-m:e-p270:32:32-p271:32:32-p272:64:64-i64:64-i128:128-f80:128-n8:16:32:64-S128"
target triple = "x86_64-pc-linux-gnu"

%"class.absl::lts_20240722::log_internal::NullStream" = type { i8 }
%"class.grpc_event_engine::experimental::TcpZerocopySendRecord" = type { %"class.grpc_event_engine::experimental::SliceBuffer", %"struct.std::atomic", %"struct.grpc_event_engine::experimental::TcpZerocopySendRecord::OutgoingOffset" }
%"class.grpc_event_engine::experimental::SliceBuffer" = type { %struct.grpc_slice_buffer }
%struct.grpc_slice_buffer = type { ptr, ptr, i64, i64, i64, [6 x %struct.grpc_slice] }
%struct.grpc_slice = type { ptr, %"union.grpc_slice::grpc_slice_data" }
%"union.grpc_slice::grpc_slice_data" = type { %"struct.grpc_slice::grpc_slice_data::grpc_slice_refcounted", [8 x i8] }
%"struct.grpc_slice::grpc_slice_data::grpc_slice_refcounted" = type { i64, ptr }
%"struct.std::atomic" = type { %"struct.std::__atomic_base" }
%"struct.std::__atomic_base" = type { i64 }
%"struct.grpc_event_engine::experimental::TcpZerocopySendRecord::OutgoingOffset" = type { i64, i64 }
%struct.iovec = type { ptr, i64 }
%"class.grpc_event_engine::experimental::slice_detail::BaseSlice" = type { %struct.grpc_slice }
%"struct.grpc_slice::grpc_slice_data::grpc_slice_inlined" = type { i8, [23 x i8] }

; Function Attrs: mustprogress nounwind uwtable
define linkonce_odr noundef nonnull align 8 dereferenceable(32) ptr @_ZNK17grpc_event_engine12experimental12slice_detail9BaseSlice7c_sliceEv(ptr noundef nonnull align 8 dereferenceable(32) %0) #6 comdat align 2 {
  %2 = alloca ptr, align 8
  store ptr %0, ptr %2, align 8, !tbaa !37
  %3 = load ptr, ptr %2, align 8
  %4 = getelementptr inbounds nuw %"class.grpc_event_engine::experimental::slice_detail::BaseSlice", ptr %3, i32 0, i32 0
  ret ptr %4
}

; Function Attrs: mustprogress uwtable
define linkonce_odr noundef i64 @_ZNK17grpc_event_engine12experimental12slice_detail9BaseSlice4sizeEv(ptr noundef nonnull align 8 dereferenceable(32) %0) #4 comdat align 2 {
  %2 = alloca ptr, align 8
  store ptr %0, ptr %2, align 8, !tbaa !37
  %3 = load ptr, ptr %2, align 8
  %4 = call noundef nonnull align 8 dereferenceable(32) ptr @_ZNK17grpc_event_engine12experimental12slice_detail9BaseSlice7c_sliceEv(ptr noundef nonnull align 8 dereferenceable(32) %3)
  %5 = getelementptr inbounds nuw %struct.grpc_slice, ptr %4, i32 0, i32 0
  %6 = load ptr, ptr %5, align 8, !tbaa !382
  %7 = icmp ne ptr %6, null
  br i1 %7, label %8, label %13

8:                                                ; preds = %1
  %9 = call noundef nonnull align 8 dereferenceable(32) ptr @_ZNK17grpc_event_engine12experimental12slice_detail9BaseSlice7c_sliceEv(ptr noundef nonnull align 8 dereferenceable(32) %3)
  %10 = getelementptr inbounds nuw %struct.grpc_slice, ptr %9, i32 0, i32 1
  %11 = getelementptr inbounds nuw %"struct.grpc_slice::grpc_slice_data::grpc_slice_refcounted", ptr %10, i32 0, i32 0
  %12 = load i64, ptr %11, align 8, !tbaa !256
  br label %19

13:                                               ; preds = %1
  %14 = call noundef nonnull align 8 dereferenceable(32) ptr @_ZNK17grpc_event_engine12experimental12slice_detail9BaseSlice7c_sliceEv(ptr noundef nonnull align 8 dereferenceable(32) %3)
  %15 = getelementptr inbounds nuw %struct.grpc_slice, ptr %14, i32 0, i32 1
  %16 = getelementptr inbounds nuw %"struct.grpc_slice::grpc_slice_data::grpc_slice_inlined", ptr %15, i32 0, i32 0
  %17 = load i8, ptr %16, align 8, !tbaa !256
  %18 = zext i8 %17 to i64
  br label %19

19:                                               ; preds = %13, %8
  %20 = phi i64 [ %12, %8 ], [ %18, %13 ]
  ret i64 %20
}

; Function Attrs: mustprogress nounwind uwtable
define linkonce_odr noundef ptr @_ZN17grpc_event_engine12experimental12slice_detail9BaseSlice12mutable_dataEv(ptr noundef nonnull align 8 dereferenceable(32) %0) #6 comdat align 2 {
  %2 = alloca ptr, align 8
  store ptr %0, ptr %2, align 8, !tbaa !37
  %3 = load ptr, ptr %2, align 8
  %4 = getelementptr inbounds nuw %"class.grpc_event_engine::experimental::slice_detail::BaseSlice", ptr %3, i32 0, i32 0
  %5 = getelementptr inbounds nuw %struct.grpc_slice, ptr %4, i32 0, i32 0
  %6 = load ptr, ptr %5, align 8, !tbaa !378
  %7 = icmp ne ptr %6, null
  br i1 %7, label %8, label %13

8:                                                ; preds = %1
  %9 = getelementptr inbounds nuw %"class.grpc_event_engine::experimental::slice_detail::BaseSlice", ptr %3, i32 0, i32 0
  %10 = getelementptr inbounds nuw %struct.grpc_slice, ptr %9, i32 0, i32 1
  %11 = getelementptr inbounds nuw %"struct.grpc_slice::grpc_slice_data::grpc_slice_refcounted", ptr %10, i32 0, i32 1
  %12 = load ptr, ptr %11, align 8, !tbaa !256
  br label %18

13:                                               ; preds = %1
  %14 = getelementptr inbounds nuw %"class.grpc_event_engine::experimental::slice_detail::BaseSlice", ptr %3, i32 0, i32 0
  %15 = getelementptr inbounds nuw %struct.grpc_slice, ptr %14, i32 0, i32 1
  %16 = getelementptr inbounds nuw %"struct.grpc_slice::grpc_slice_data::grpc_slice_inlined", ptr %15, i32 0, i32 1
  %17 = getelementptr inbounds [23 x i8], ptr %16, i64 0, i64 0
  br label %18

18:                                               ; preds = %13, %8
  %19 = phi ptr [ %12, %8 ], [ %17, %13 ]
  ret ptr %19
}

; Function Attrs: mustprogress nounwind uwtable
define linkonce_odr noundef nonnull align 8 dereferenceable(32) ptr @_ZN17grpc_event_engine12experimental8internal9SliceCastINS0_5SliceE10grpc_sliceEERT_RT0_NS1_13SliceCastableIS5_S7_EE(ptr noundef nonnull align 8 dereferenceable(32) %0) #6 comdat {
  %2 = alloca ptr, align 8
  store ptr %0, ptr %2, align 8, !tbaa !197
  %3 = load ptr, ptr %2, align 8, !tbaa !197
  ret ptr %3
}

; Function Attrs: mustprogress nounwind uwtable
define linkonce_odr noundef nonnull align 1 dereferenceable(1) ptr @_ZN4absl12lts_2024072212log_internal10NullStream14InternalStreamEv(ptr noundef nonnull align 1 dereferenceable(1) %0) #6 comdat align 2 {
  %2 = alloca ptr, align 8
  store ptr %0, ptr %2, align 8, !tbaa !39
  %3 = load ptr, ptr %2, align 8
  ret ptr %3
}

; Function Attrs: mustprogress uwtable
define linkonce_odr noundef i64 @_ZNK17grpc_event_engine12experimental12slice_detail9BaseSlice6lengthEv(ptr noundef nonnull align 8 dereferenceable(32) %0) #4 comdat align 2 {
  %2 = alloca ptr, align 8
  store ptr %0, ptr %2, align 8, !tbaa !37
  %3 = load ptr, ptr %2, align 8
  %4 = call noundef i64 @_ZNK17grpc_event_engine12experimental12slice_detail9BaseSlice4sizeEv(ptr noundef nonnull align 8 dereferenceable(32) %3)
  ret i64 %4
}

; Function Attrs: mustprogress uwtable
define linkonce_odr noundef ptr @_ZN17grpc_event_engine12experimental12MutableSlice5beginEv(ptr noundef nonnull align 8 dereferenceable(32) %0) #4 comdat align 2 {
  %2 = alloca ptr, align 8
  store ptr %0, ptr %2, align 8, !tbaa !23
  %3 = load ptr, ptr %2, align 8
  %4 = call noundef ptr @_ZN17grpc_event_engine12experimental12slice_detail9BaseSlice12mutable_dataEv(ptr noundef nonnull align 8 dereferenceable(32) %3)
  ret ptr %4
}

; Function Attrs: mustprogress nounwind uwtable
define linkonce_odr noundef nonnull align 8 dereferenceable(32) ptr @_ZN17grpc_event_engine12experimental8internal9SliceCastINS0_12MutableSliceENS0_5SliceEEERT_RT0_NS1_13SliceCastableIS5_S7_EE(ptr noundef nonnull align 8 dereferenceable(32) %0) #6 comdat {
  %2 = alloca ptr, align 8
  store ptr %0, ptr %2, align 8, !tbaa !34
  %3 = load ptr, ptr %2, align 8, !tbaa !34
  ret ptr %3
}

; Function Attrs: mustprogress uwtable
define linkonce_odr noundef nonnull align 8 dereferenceable(32) ptr @_ZNK17grpc_event_engine12experimental11SliceBuffer14MutableSliceAtEm(ptr noundef nonnull align 8 dereferenceable(232) %0, i64 noundef %1) #4 comdat align 2 {
  %3 = alloca ptr, align 8
  %4 = alloca i64, align 8
  store ptr %0, ptr %3, align 8, !tbaa !31
  store i64 %1, ptr %4, align 8, !tbaa !21
  %5 = load ptr, ptr %3, align 8
  %6 = getelementptr inbounds nuw %"class.grpc_event_engine::experimental::SliceBuffer", ptr %5, i32 0, i32 0
  %7 = getelementptr inbounds nuw %struct.grpc_slice_buffer, ptr %6, i32 0, i32 1
  %8 = load ptr, ptr %7, align 8, !tbaa !36
  %9 = load i64, ptr %4, align 8, !tbaa !21
  %10 = getelementptr inbounds nuw %struct.grpc_slice, ptr %8, i64 %9
  %11 = call noundef nonnull align 8 dereferenceable(32) ptr @_ZN17grpc_event_engine12experimental8internal9SliceCastINS0_5SliceE10grpc_sliceEERT_RT0_NS1_13SliceCastableIS5_S7_EE(ptr noundef nonnull align 8 dereferenceable(32) %10)
  ret ptr %11
}

; Function Attrs: mustprogress nounwind uwtable
define linkonce_odr noundef i64 @_ZN17grpc_event_engine12experimental11SliceBuffer5CountEv(ptr noundef nonnull align 8 dereferenceable(232) %0) #6 comdat align 2 {
  %2 = alloca ptr, align 8
  store ptr %0, ptr %2, align 8, !tbaa !31
  %3 = load ptr, ptr %2, align 8
  %4 = getelementptr inbounds nuw %"class.grpc_event_engine::experimental::SliceBuffer", ptr %3, i32 0, i32 0
  %5 = getelementptr inbounds nuw %struct.grpc_slice_buffer, ptr %4, i32 0, i32 2
  %6 = load i64, ptr %5, align 8, !tbaa !33
  ret i64 %6
}

; Function Attrs: mustprogress uwtable
define noundef i64 @_ZN17grpc_event_engine12experimental21TcpZerocopySendRecord12PopulateIovsEPmS2_S2_P5iovec(ptr noundef nonnull align 8 dereferenceable(256) %0, ptr noundef %1, ptr noundef %2, ptr noundef %3, ptr noundef %4) #4 align 2 {
  %6 = alloca ptr, align 8
  %7 = alloca ptr, align 8
  %8 = alloca ptr, align 8
  %9 = alloca ptr, align 8
  %10 = alloca ptr, align 8
  %11 = alloca i64, align 8
  %12 = alloca ptr, align 8
  %13 = alloca %"class.absl::lts_20240722::log_internal::NullStream", align 1
  store ptr %0, ptr %6, align 8, !tbaa !3
  store ptr %1, ptr %7, align 8, !tbaa !8
  store ptr %2, ptr %8, align 8, !tbaa !8
  store ptr %3, ptr %9, align 8, !tbaa !8
  store ptr %4, ptr %10, align 8, !tbaa !10
  %14 = load ptr, ptr %6, align 8
  call void @llvm.lifetime.start.p0(i64 8, ptr %11) #3
  %15 = getelementptr inbounds nuw %"class.grpc_event_engine::experimental::TcpZerocopySendRecord", ptr %14, i32 0, i32 2
  %16 = getelementptr inbounds nuw %"struct.grpc_event_engine::experimental::TcpZerocopySendRecord::OutgoingOffset", ptr %15, i32 0, i32 0
  %17 = load i64, ptr %16, align 8, !tbaa !12
  %18 = load ptr, ptr %7, align 8, !tbaa !8
  store i64 %17, ptr %18, align 8, !tbaa !21
  %19 = getelementptr inbounds nuw %"class.grpc_event_engine::experimental::TcpZerocopySendRecord", ptr %14, i32 0, i32 2
  %20 = getelementptr inbounds nuw %"struct.grpc_event_engine::experimental::TcpZerocopySendRecord::OutgoingOffset", ptr %19, i32 0, i32 1
  %21 = load i64, ptr %20, align 8, !tbaa !22
  %22 = load ptr, ptr %8, align 8, !tbaa !8
  store i64 %21, ptr %22, align 8, !tbaa !21
  store i64 0, ptr %11, align 8, !tbaa !21
  br label %23

23:                                               ; preds = %76, %5
  %24 = getelementptr inbounds nuw %"class.grpc_event_engine::experimental::TcpZerocopySendRecord", ptr %14, i32 0, i32 2
  %25 = getelementptr inbounds nuw %"struct.grpc_event_engine::experimental::TcpZerocopySendRecord::OutgoingOffset", ptr %24, i32 0, i32 0
  %26 = load i64, ptr %25, align 8, !tbaa !12
  %27 = getelementptr inbounds nuw %"class.grpc_event_engine::experimental::TcpZerocopySendRecord", ptr %14, i32 0, i32 0
  %28 = call noundef i64 @_ZN17grpc_event_engine12experimental11SliceBuffer5CountEv(ptr noundef nonnull align 8 dereferenceable(232) %27)
  %29 = icmp ne i64 %26, %28
  br i1 %29, label %30, label %33

30:                                               ; preds = %23
  %31 = load i64, ptr %11, align 8, !tbaa !21
  %32 = icmp ne i64 %31, 260
  br label %33

33:                                               ; preds = %30, %23
  %34 = phi i1 [ false, %23 ], [ %32, %30 ]
  br i1 %34, label %35, label %79

35:                                               ; preds = %33
  call void @llvm.lifetime.start.p0(i64 8, ptr %12) #3
  %36 = getelementptr inbounds nuw %"class.grpc_event_engine::experimental::TcpZerocopySendRecord", ptr %14, i32 0, i32 0
  %37 = getelementptr inbounds nuw %"class.grpc_event_engine::experimental::TcpZerocopySendRecord", ptr %14, i32 0, i32 2
  %38 = getelementptr inbounds nuw %"struct.grpc_event_engine::experimental::TcpZerocopySendRecord::OutgoingOffset", ptr %37, i32 0, i32 0
  %39 = load i64, ptr %38, align 8, !tbaa !12
  %40 = call noundef nonnull align 8 dereferenceable(32) ptr @_ZNK17grpc_event_engine12experimental11SliceBuffer14MutableSliceAtEm(ptr noundef nonnull align 8 dereferenceable(232) %36, i64 noundef %39)
  %41 = call noundef nonnull align 8 dereferenceable(32) ptr @_ZN17grpc_event_engine12experimental8internal9SliceCastINS0_12MutableSliceENS0_5SliceEEERT_RT0_NS1_13SliceCastableIS5_S7_EE(ptr noundef nonnull align 8 dereferenceable(32) %40)
  store ptr %41, ptr %12, align 8, !tbaa !23
  %42 = load ptr, ptr %12, align 8, !tbaa !23
  %43 = call noundef ptr @_ZN17grpc_event_engine12experimental12MutableSlice5beginEv(ptr noundef nonnull align 8 dereferenceable(32) %42)
  %44 = getelementptr inbounds nuw %"class.grpc_event_engine::experimental::TcpZerocopySendRecord", ptr %14, i32 0, i32 2
  %45 = getelementptr inbounds nuw %"struct.grpc_event_engine::experimental::TcpZerocopySendRecord::OutgoingOffset", ptr %44, i32 0, i32 1
  %46 = load i64, ptr %45, align 8, !tbaa !22
  %47 = getelementptr inbounds nuw i8, ptr %43, i64 %46
  %48 = load ptr, ptr %10, align 8, !tbaa !10
  %49 = load i64, ptr %11, align 8, !tbaa !21
  %50 = getelementptr inbounds nuw %struct.iovec, ptr %48, i64 %49
  %51 = getelementptr inbounds nuw %struct.iovec, ptr %50, i32 0, i32 0
  store ptr %47, ptr %51, align 8, !tbaa !25
  %52 = load ptr, ptr %12, align 8, !tbaa !23
  %53 = call noundef i64 @_ZNK17grpc_event_engine12experimental12slice_detail9BaseSlice6lengthEv(ptr noundef nonnull align 8 dereferenceable(32) %52)
  %54 = getelementptr inbounds nuw %"class.grpc_event_engine::experimental::TcpZerocopySendRecord", ptr %14, i32 0, i32 2
  %55 = getelementptr inbounds nuw %"struct.grpc_event_engine::experimental::TcpZerocopySendRecord::OutgoingOffset", ptr %54, i32 0, i32 1
  %56 = load i64, ptr %55, align 8, !tbaa !22
  %57 = sub i64 %53, %56
  %58 = load ptr, ptr %10, align 8, !tbaa !10
  %59 = load i64, ptr %11, align 8, !tbaa !21
  %60 = getelementptr inbounds nuw %struct.iovec, ptr %58, i64 %59
  %61 = getelementptr inbounds nuw %struct.iovec, ptr %60, i32 0, i32 1
  store i64 %57, ptr %61, align 8, !tbaa !27
  %62 = load ptr, ptr %10, align 8, !tbaa !10
  %63 = load i64, ptr %11, align 8, !tbaa !21
  %64 = getelementptr inbounds nuw %struct.iovec, ptr %62, i64 %63
  %65 = getelementptr inbounds nuw %struct.iovec, ptr %64, i32 0, i32 1
  %66 = load i64, ptr %65, align 8, !tbaa !27
  %67 = load ptr, ptr %9, align 8, !tbaa !8
  %68 = load i64, ptr %67, align 8, !tbaa !21
  %69 = add i64 %68, %66
  store i64 %69, ptr %67, align 8, !tbaa !21
  %70 = getelementptr inbounds nuw %"class.grpc_event_engine::experimental::TcpZerocopySendRecord", ptr %14, i32 0, i32 2
  %71 = getelementptr inbounds nuw %"struct.grpc_event_engine::experimental::TcpZerocopySendRecord::OutgoingOffset", ptr %70, i32 0, i32 0
  %72 = load i64, ptr %71, align 8, !tbaa !12
  %73 = add i64 %72, 1
  store i64 %73, ptr %71, align 8, !tbaa !12
  %74 = getelementptr inbounds nuw %"class.grpc_event_engine::experimental::TcpZerocopySendRecord", ptr %14, i32 0, i32 2
  %75 = getelementptr inbounds nuw %"struct.grpc_event_engine::experimental::TcpZerocopySendRecord::OutgoingOffset", ptr %74, i32 0, i32 1
  store i64 0, ptr %75, align 8, !tbaa !22
  call void @llvm.lifetime.end.p0(i64 8, ptr %12) #3
  br label %76

76:                                               ; preds = %35
  %77 = load i64, ptr %11, align 8, !tbaa !21
  %78 = add i64 %77, 1
  store i64 %78, ptr %11, align 8, !tbaa !21
  br label %23, !llvm.loop !28

79:                                               ; preds = %33
  br label %80

80:                                               ; preds = %81, %79
  br i1 false, label %81, label %83

81:                                               ; preds = %80
  call void @llvm.lifetime.start.p0(i64 1, ptr %13) #3
  %82 = call noundef nonnull align 1 dereferenceable(1) ptr @_ZN4absl12lts_2024072212log_internal10NullStream14InternalStreamEv(ptr noundef nonnull align 1 dereferenceable(1) %13)
  call void @llvm.lifetime.end.p0(i64 1, ptr %13) #3
  br label %80, !llvm.loop !30

83:                                               ; preds = %80
  %84 = load i64, ptr %11, align 8, !tbaa !21
  call void @llvm.lifetime.end.p0(i64 8, ptr %11) #3
  ret i64 %84
}