; Function Attrs: mustprogress nofree norecurse nosync nounwind memory(read, argmem: readwrite, inaccessiblemem: none) uwtable
define noundef i64 @_ZN17grpc_event_engine12experimental21TcpZerocopySendRecord12PopulateIovsEPmS2_S2_P5iovec(ptr noundef nonnull align 8 captures(none) dereferenceable(256) %0, ptr noundef writeonly captures(none) initializes((0, 8)) %1, ptr noundef writeonly captures(none) initializes((0, 8)) %2, ptr noundef captures(none) %3, ptr noundef writeonly captures(none) %4) local_unnamed_addr #3 align 2 {
  %6 = getelementptr inbounds nuw i8, ptr %0, i64 240
  %7 = load i64, ptr %6, align 8, !tbaa !3
  store i64 %7, ptr %1, align 8, !tbaa !15
  %8 = getelementptr inbounds nuw i8, ptr %0, i64 248
  %9 = load i64, ptr %8, align 8, !tbaa !16
  store i64 %9, ptr %2, align 8, !tbaa !15
  %10 = getelementptr inbounds nuw i8, ptr %0, i64 16
  %11 = load i64, ptr %6, align 8, !tbaa !3
  %12 = load i64, ptr %10, align 8, !tbaa !17
  %.not = icmp eq i64 %11, %12
  br i1 %.not, label %._crit_edge, label %.lr.ph

.lr.ph:                                           ; preds = %5
  %13 = getelementptr inbounds nuw i8, ptr %0, i64 8
  %14 = load ptr, ptr %13, align 8, !tbaa !18
  br label %15

15:                                               ; preds = %.lr.ph, %15
  %16 = phi i64 [ %9, %.lr.ph ], [ 0, %15 ]
  %17 = phi i64 [ %11, %.lr.ph ], [ %35, %15 ]
  %.015 = phi i64 [ 0, %.lr.ph ], [ %36, %15 ]
  %18 = getelementptr inbounds nuw %struct.grpc_slice, ptr %14, i64 %17
  %19 = load ptr, ptr %18, align 8, !tbaa !19
  %.not.i.i = icmp eq ptr %19, null
  %20 = getelementptr inbounds nuw i8, ptr %18, i64 16
  %21 = load ptr, ptr %20, align 8
  %22 = getelementptr inbounds nuw i8, ptr %18, i64 9
  %23 = select i1 %.not.i.i, ptr %22, ptr %21
  %24 = getelementptr inbounds nuw i8, ptr %23, i64 %16
  %25 = getelementptr inbounds nuw %struct.iovec, ptr %4, i64 %.015
  store ptr %24, ptr %25, align 8, !tbaa !23
  %26 = getelementptr inbounds nuw i8, ptr %18, i64 8
  %27 = load i64, ptr %26, align 8
  %28 = and i64 %27, 255
  %29 = select i1 %.not.i.i, i64 %28, i64 %27
  %30 = sub i64 %29, %16
  %31 = getelementptr inbounds nuw i8, ptr %25, i64 8
  store i64 %30, ptr %31, align 8, !tbaa !25
  %32 = load i64, ptr %3, align 8, !tbaa !15
  %33 = add i64 %30, %32
  store i64 %33, ptr %3, align 8, !tbaa !15
  %34 = load i64, ptr %6, align 8, !tbaa !3
  %35 = add i64 %34, 1
  store i64 %35, ptr %6, align 8, !tbaa !3
  store i64 0, ptr %8, align 8, !tbaa !16
  %36 = add nuw nsw i64 %.015, 1
  %37 = load i64, ptr %10, align 8, !tbaa !17
  %38 = icmp ne i64 %35, %37
  %39 = icmp ne i64 %36, 260
  %40 = and i1 %38, %39
  br i1 %40, label %15, label %._crit_edge, !llvm.loop !26

._crit_edge:                                      ; preds = %15, %5
  %.0.lcssa = phi i64 [ 0, %5 ], [ %36, %15 ]
  ret i64 %.0.lcssa
}